target datalayout = "e-m:e-p270:32:32-p271:32:32-p272:64:64-i64:64-i128:128-f80:128-n8:16:32:64-S128"
target triple = "x86_64-pc-linux-gnu"

@.str.5 = private unnamed_addr constant [33 x i8] c"../openssl/test/quic_wire_test.c\00", align 1
@.str.143 = private unnamed_addr constant [107 x i8] c"ossl_quic_wire_encode_transport_param_bytes(pkt, 0x1234, encode_case_22_data, sizeof(encode_case_22_data))\00", align 1
@encode_case_22_data = internal constant [5 x i8] c"Uw2F\99", align 1
@.str.144 = private unnamed_addr constant [70 x i8] c"p = ossl_quic_wire_encode_transport_param_bytes(pkt, 0x9781, NULL, 2)\00", align 1

; Function Attrs: nounwind uwtable
define internal i32 @encode_case_22_enc(ptr noundef %0) #0 {
  %2 = alloca i32, align 4
  %3 = alloca ptr, align 8
  %4 = alloca ptr, align 8
  %5 = alloca i32, align 4
  store ptr %0, ptr %3, align 8, !tbaa !44
  call void @llvm.lifetime.start.p0(i64 8, ptr %4) #5
  %6 = load ptr, ptr %3, align 8, !tbaa !44
  %7 = call ptr @ossl_quic_wire_encode_transport_param_bytes(ptr noundef %6, i64 noundef 4660, ptr noundef @encode_case_22_data, i64 noundef 5)
  %8 = call i32 @test_ptr(ptr noundef @.str.5, i32 noundef 1047, ptr noundef @.str.143, ptr noundef %7)
  %9 = icmp ne i32 %8, 0
  br i1 %9, label %11, label %10

10:                                               ; preds = %1
  store i32 0, ptr %2, align 4
  store i32 1, ptr %5, align 4
  br label %22

11:                                               ; preds = %1
  %12 = load ptr, ptr %3, align 8, !tbaa !44
  %13 = call ptr @ossl_quic_wire_encode_transport_param_bytes(ptr noundef %12, i64 noundef 38785, ptr noundef null, i64 noundef 2)
  store ptr %13, ptr %4, align 8, !tbaa !39
  %14 = call i32 @test_ptr(ptr noundef @.str.5, i32 noundef 1051, ptr noundef @.str.144, ptr noundef %13)
  %15 = icmp ne i32 %14, 0
  br i1 %15, label %17, label %16

16:                                               ; preds = %11
  store i32 0, ptr %2, align 4
  store i32 1, ptr %5, align 4
  br label %22

17:                                               ; preds = %11
  %18 = load ptr, ptr %4, align 8, !tbaa !39
  %19 = getelementptr inbounds i8, ptr %18, i64 0
  store i8 51, ptr %19, align 1, !tbaa !74
  %20 = load ptr, ptr %4, align 8, !tbaa !39
  %21 = getelementptr inbounds i8, ptr %20, i64 1
  store i8 68, ptr %21, align 1, !tbaa !74
  store i32 1, ptr %2, align 4
  store i32 1, ptr %5, align 4
  br label %22

22:                                               ; preds = %17, %16, %10
  call void @llvm.lifetime.end.p0(i64 8, ptr %4) #5
  %23 = load i32, ptr %2, align 4
  ret i32 %23
}