; Function Attrs: nounwind uwtable
define internal range(i32 0, 2) i32 @encode_case_22_enc(ptr noundef %0) #0 {
  %2 = tail call ptr @ossl_quic_wire_encode_transport_param_bytes(ptr noundef %0, i64 noundef 4660, ptr noundef nonnull @encode_case_22_data, i64 noundef 5) #4
  %3 = tail call i32 @test_ptr(ptr noundef nonnull @.str.5, i32 noundef 1047, ptr noundef nonnull @.str.143, ptr noundef %2) #4
  %.not = icmp eq i32 %3, 0
  br i1 %.not, label %9, label %4

4:                                                ; preds = %1
  %5 = tail call ptr @ossl_quic_wire_encode_transport_param_bytes(ptr noundef %0, i64 noundef 38785, ptr noundef null, i64 noundef 2) #4
  %6 = tail call i32 @test_ptr(ptr noundef nonnull @.str.5, i32 noundef 1051, ptr noundef nonnull @.str.144, ptr noundef %5) #4
  %.not4 = icmp eq i32 %6, 0
  br i1 %.not4, label %9, label %7

7:                                                ; preds = %4
  store i8 51, ptr %5, align 1, !tbaa !62
  %8 = getelementptr inbounds nuw i8, ptr %5, i64 1
  store i8 68, ptr %8, align 1, !tbaa !62
  br label %9

9:                                                ; preds = %4, %1, %7
  %.0 = phi i32 [ 1, %7 ], [ 0, %1 ], [ 0, %4 ]
  ret i32 %.0
}